(dp1
S'A'
I2
sS'C'
I9
sS'E'
I19
sS'D'
I20
sS'G'
I1
sS'F'
I13
sS'I'
I6
sS'M'
I5
sS'K'
I16
sS'STOP'
p2
I0
sS'L'
I4
sS'N'
I18
sS'Q'
I12
sS'P'
I10
sS'S'
I7
sS'R'
I11
sS'T'
I8
sS'W'
I15
sS'V'
I3
sS'Y'
I14
sS'H'
I17
s.