(dp1
S'ACC'
p2
I0
sS'CTT'
p3
I9
sS'ACA'
p4
I2
sS'GAT'
p5
I62
sS'AAA'
p6
I3
sS'ATC'
p7
I41
sS'AAC'
p8
I5
sS'ATG'
p9
I23
sS'AGG'
p10
I30
sS'CCT'
p11
I6
sS'CTC'
p12
I47
sS'AGC'
p13
I8
sS'AAG'
p14
I52
sS'AGA'
p15
I48
sS'CAT'
p16
I10
sS'AAT'
p17
I11
sS'ATT'
p18
I51
sS'CTG'
p19
I45
sS'CTA'
p20
I49
sS'ACT'
p21
I12
sS'CAC'
p22
I14
sS'ACG'
p23
I15
sS'CCG'
p24
I18
sS'AGT'
p25
I16
sS'CCA'
p26
I17
sS'CAA'
p27
I53
sS'CCC'
p28
I19
sS'TAG'
p29
I58
sS'TAT'
p30
I7
sS'GGT'
p31
I21
sS'GCG'
p32
I43
sS'TGT'
p33
I20
sS'CGA'
p34
I57
sS'CAG'
p35
I25
sS'TCT'
p36
I22
sS'ATA'
p37
I39
sS'CGG'
p38
I28
sS'TTT'
p39
I54
sS'TGC'
p40
I24
sS'GGG'
p41
I31
sS'TGA'
p42
I26
sS'GGA'
p43
I35
sS'TGG'
p44
I27
sS'GGC'
p45
I42
sS'TAC'
p46
I36
sS'GAG'
p47
I46
sS'TCG'
p48
I29
sS'TTA'
p49
I61
sS'GAC'
p50
I55
sS'TCC'
p51
I32
sS'GAA'
p52
I38
sS'TCA'
p53
I33
sS'GCA'
p54
I40
sS'GTA'
p55
I56
sS'GCC'
p56
I50
sS'GTC'
p57
I1
sS'TAA'
p58
I34
sS'GTG'
p59
I13
sS'TTC'
p60
I63
sS'GTT'
p61
I4
sS'GCT'
p62
I59
sS'TTG'
p63
I60
sS'CGT'
p64
I37
sS'CGC'
p65
I44
s.