(dp1
S'ACC'
p2
S'T'
sS'GUC'
p3
S'V'
sS'ACA'
p4
S'T'
sS'ACG'
p5
S'T'
sS'GUU'
p6
S'V'
sS'AAC'
p7
S'N'
sS'CCU'
p8
S'P'
sS'UGG'
p9
S'W'
sS'AGC'
p10
S'S'
sS'AUC'
p11
S'I'
sS'CAU'
p12
S'H'
sS'AAU'
p13
S'N'
sS'AGU'
p14
S'S'
sS'ACU'
p15
S'T'
sS'GUG'
p16
S'V'
sS'CAC'
p17
S'H'
sS'AAA'
p18
S'K'
sS'CCG'
p19
S'P'
sS'CCA'
p20
S'P'
sS'CAA'
p21
S'Q'
sS'CCC'
p22
S'P'
sS'GGU'
p23
S'G'
sS'UCU'
p24
S'S'
sS'GCG'
p25
S'A'
sS'UGC'
p26
S'C'
sS'CAG'
p27
S'Q'
sS'UGA'
p28
S'STOP'
p29
sS'UAU'
p30
S'Y'
sS'CGG'
p31
S'R'
sS'UCG'
p32
S'S'
sS'AGG'
p33
S'R'
sS'GGG'
p34
S'G'
sS'UCC'
p35
S'S'
sS'UCA'
p36
S'S'
sS'GAA'
p37
S'E'
sS'UAA'
p38
g29
sS'GGA'
p39
S'G'
sS'UAC'
p40
S'Y'
sS'CGU'
p41
S'R'
sS'UAG'
p42
g29
sS'AUA'
p43
S'I'
sS'GCA'
p44
S'A'
sS'CUU'
p45
S'L'
sS'GGC'
p46
S'G'
sS'AUG'
p47
S'M'
sS'CUG'
p48
S'L'
sS'GAG'
p49
S'E'
sS'CUC'
p50
S'L'
sS'AGA'
p51
S'R'
sS'CUA'
p52
S'L'
sS'GCC'
p53
S'A'
sS'AAG'
p54
S'K'
sS'GAU'
p55
S'D'
sS'UUU'
p56
S'F'
sS'GAC'
p57
S'D'
sS'GUA'
p58
S'V'
sS'CGA'
p59
S'R'
sS'GCU'
p60
S'A'
sS'UGU'
p61
S'C'
sS'AUU'
p62
S'I'
sS'UUG'
p63
S'L'
sS'UUA'
p64
S'L'
sS'CGC'
p65
S'R'
sS'UUC'
p66
S'F'
s.